target datalayout = "e-m:e-p270:32:32-p271:32:32-p272:64:64-i64:64-i128:128-f80:128-n8:16:32:64-S128"
target triple = "x86_64-pc-linux-gnu"

%"class.icu_77::UObject" = type { ptr }
%"class.icu_77::ScriptSet" = type { [7 x i32] }
%"class.icu_77::UnicodeString" = type { %"class.icu_77::Replaceable", %"union.icu_77::UnicodeString::StackBufferOrFields" }
%"class.icu_77::Replaceable" = type { %"class.icu_77::UObject" }
%"union.icu_77::UnicodeString::StackBufferOrFields" = type { %struct.anon.0, [32 x i8] }
%struct.anon.0 = type { i16, i32, i32, ptr }

; Function Attrs: inlinehint mustprogress nounwind uwtable
define linkonce_odr noundef i32 @_ZNK6icu_7713UnicodeString14getShortLengthEv(ptr noundef nonnull align 8 dereferenceable(64) %0) #2 comdat align 2 {
  %2 = alloca ptr, align 8
  store ptr %0, ptr %2, align 8, !tbaa !58
  %3 = load ptr, ptr %2, align 8
  %4 = getelementptr inbounds nuw %"class.icu_77::UnicodeString", ptr %3, i32 0, i32 1
  %5 = getelementptr inbounds nuw %struct.anon.0, ptr %4, i32 0, i32 0
  %6 = load i16, ptr %5, align 8, !tbaa !46
  %7 = sext i16 %6 to i32
  %8 = ashr i32 %7, 5
  ret i32 %8
}

; Function Attrs: inlinehint mustprogress nounwind uwtable
define linkonce_odr noundef signext i8 @_ZNK6icu_7713UnicodeString14hasShortLengthEv(ptr noundef nonnull align 8 dereferenceable(64) %0) #2 comdat align 2 {
  %2 = alloca ptr, align 8
  store ptr %0, ptr %2, align 8, !tbaa !58
  %3 = load ptr, ptr %2, align 8
  %4 = getelementptr inbounds nuw %"class.icu_77::UnicodeString", ptr %3, i32 0, i32 1
  %5 = getelementptr inbounds nuw %struct.anon.0, ptr %4, i32 0, i32 0
  %6 = load i16, ptr %5, align 8, !tbaa !46
  %7 = sext i16 %6 to i32
  %8 = icmp sge i32 %7, 0
  %9 = zext i1 %8 to i8
  ret i8 %9
}

; Function Attrs: inlinehint mustprogress nounwind uwtable
define internal noundef signext i8 @_ZL9U_FAILURE10UErrorCode(i32 noundef %0) #2 {
  %2 = alloca i32, align 4
  store i32 %0, ptr %2, align 4, !tbaa !30
  %3 = load i32, ptr %2, align 4, !tbaa !30
  %4 = icmp sgt i32 %3, 0
  %5 = zext i1 %4 to i8
  ret i8 %5
}

; Function Attrs: inlinehint mustprogress uwtable
define linkonce_odr noundef i32 @_ZNK6icu_7713UnicodeString6lengthEv(ptr noundef nonnull align 8 dereferenceable(64) %0) #8 comdat align 2 {
  %2 = alloca ptr, align 8
  store ptr %0, ptr %2, align 8, !tbaa !58
  %3 = load ptr, ptr %2, align 8
  %4 = call noundef signext i8 @_ZNK6icu_7713UnicodeString14hasShortLengthEv(ptr noundef nonnull align 8 dereferenceable(64) %3)
  %5 = icmp ne i8 %4, 0
  br i1 %5, label %6, label %8

6:                                                ; preds = %1
  %7 = call noundef i32 @_ZNK6icu_7713UnicodeString14getShortLengthEv(ptr noundef nonnull align 8 dereferenceable(64) %3)
  br label %12

8:                                                ; preds = %1
  %9 = getelementptr inbounds nuw %"class.icu_77::UnicodeString", ptr %3, i32 0, i32 1
  %10 = getelementptr inbounds nuw %struct.anon.0, ptr %9, i32 0, i32 1
  %11 = load i32, ptr %10, align 4, !tbaa !46
  br label %12

12:                                               ; preds = %8, %6
  %13 = phi i32 [ %7, %6 ], [ %11, %8 ]
  ret i32 %13
}

; Function Attrs: mustprogress uwtable
define void @_ZNK6icu_779SpoofImpl27getResolvedScriptSetWithoutERKNS_13UnicodeStringE11UScriptCodeRNS_9ScriptSetER10UErrorCode(ptr noundef nonnull align 8 dereferenceable(44) %0, ptr noundef nonnull align 8 dereferenceable(64) %1, i32 noundef %2, ptr noundef nonnull align 4 dereferenceable(28) %3, ptr noundef nonnull align 4 dereferenceable(4) %4) #1 align 2 personality ptr @__gxx_personality_v0 {
  %6 = alloca ptr, align 8
  %7 = alloca ptr, align 8
  %8 = alloca i32, align 4
  %9 = alloca ptr, align 8
  %10 = alloca ptr, align 8
  %11 = alloca %"class.icu_77::ScriptSet", align 4
  %12 = alloca i32, align 4
  %13 = alloca i32, align 4
  %14 = alloca ptr, align 8
  %15 = alloca i32, align 4
  %16 = alloca i32, align 4
  store ptr %0, ptr %6, align 8, !tbaa !3
  store ptr %1, ptr %7, align 8, !tbaa !58
  store i32 %2, ptr %8, align 4, !tbaa !53
  store ptr %3, ptr %9, align 8, !tbaa !56
  store ptr %4, ptr %10, align 8, !tbaa !10
  %17 = load ptr, ptr %9, align 8, !tbaa !56
  %18 = call noundef nonnull align 4 dereferenceable(28) ptr @_ZN6icu_779ScriptSet6setAllEv(ptr noundef nonnull align 4 dereferenceable(28) %17)
  call void @llvm.lifetime.start.p0(i64 28, ptr %11) #15
  call void @_ZN6icu_779ScriptSetC1Ev(ptr noundef nonnull align 4 dereferenceable(28) %11)
  call void @llvm.lifetime.start.p0(i64 4, ptr %12) #15
  call void @llvm.lifetime.start.p0(i64 4, ptr %13) #15
  store i32 0, ptr %13, align 4, !tbaa !48
  br label %19

19:                                               ; preds = %58, %5
  %20 = load i32, ptr %13, align 4, !tbaa !48
  %21 = load ptr, ptr %7, align 8, !tbaa !58
  %22 = invoke noundef i32 @_ZNK6icu_7713UnicodeString6lengthEv(ptr noundef nonnull align 8 dereferenceable(64) %21)
          to label %23 unwind label %26

23:                                               ; preds = %19
  %24 = icmp slt i32 %20, %22
  br i1 %24, label %30, label %25

25:                                               ; preds = %23
  store i32 2, ptr %16, align 4
  br label %64

26:                                               ; preds = %53, %47, %37, %34, %30, %19
  %27 = landingpad { ptr, i32 }
          cleanup
  %28 = extractvalue { ptr, i32 } %27, 0
  store ptr %28, ptr %14, align 8
  %29 = extractvalue { ptr, i32 } %27, 1
  store i32 %29, ptr %15, align 4
  call void @llvm.lifetime.end.p0(i64 4, ptr %13) #15
  call void @llvm.lifetime.end.p0(i64 4, ptr %12) #15
  call void @_ZN6icu_779ScriptSetD1Ev(ptr noundef nonnull align 4 dereferenceable(28) %11) #15
  call void @llvm.lifetime.end.p0(i64 28, ptr %11) #15
  br label %70

30:                                               ; preds = %23
  %31 = load ptr, ptr %7, align 8, !tbaa !58
  %32 = load i32, ptr %13, align 4, !tbaa !48
  %33 = invoke noundef i32 @_ZNK6icu_7713UnicodeString8char32AtEi(ptr noundef nonnull align 8 dereferenceable(64) %31, i32 noundef %32)
          to label %34 unwind label %26

34:                                               ; preds = %30
  store i32 %33, ptr %12, align 4, !tbaa !48
  %35 = load i32, ptr %12, align 4, !tbaa !48
  %36 = load ptr, ptr %10, align 8, !tbaa !10
  invoke void @_ZN6icu_779SpoofImpl21getAugmentedScriptSetEiRNS_9ScriptSetER10UErrorCode(i32 noundef %35, ptr noundef nonnull align 4 dereferenceable(28) %11, ptr noundef nonnull align 4 dereferenceable(4) %36)
          to label %37 unwind label %26

37:                                               ; preds = %34
  %38 = load ptr, ptr %10, align 8, !tbaa !10
  %39 = load i32, ptr %38, align 4, !tbaa !30
  %40 = invoke noundef signext i8 @_ZL9U_FAILURE10UErrorCode(i32 noundef %39)
          to label %41 unwind label %26

41:                                               ; preds = %37
  %42 = icmp ne i8 %40, 0
  br i1 %42, label %43, label %44

43:                                               ; preds = %41
  store i32 1, ptr %16, align 4
  br label %64

44:                                               ; preds = %41
  %45 = load i32, ptr %8, align 4, !tbaa !53
  %46 = icmp eq i32 %45, 208
  br i1 %46, label %53, label %47

47:                                               ; preds = %44
  %48 = load i32, ptr %8, align 4, !tbaa !53
  %49 = load ptr, ptr %10, align 8, !tbaa !10
  %50 = invoke noundef signext i8 @_ZNK6icu_779ScriptSet4testE11UScriptCodeR10UErrorCode(ptr noundef nonnull align 4 dereferenceable(28) %11, i32 noundef %48, ptr noundef nonnull align 4 dereferenceable(4) %49)
          to label %51 unwind label %26

51:                                               ; preds = %47
  %52 = icmp ne i8 %50, 0
  br i1 %52, label %57, label %53

53:                                               ; preds = %51, %44
  %54 = load ptr, ptr %9, align 8, !tbaa !56
  %55 = invoke noundef nonnull align 4 dereferenceable(28) ptr @_ZN6icu_779ScriptSet9intersectERKS0_(ptr noundef nonnull align 4 dereferenceable(28) %54, ptr noundef nonnull align 4 dereferenceable(28) %11)
          to label %56 unwind label %26

56:                                               ; preds = %53
  br label %57

57:                                               ; preds = %56, %51
  br label %58

58:                                               ; preds = %57
  %59 = load i32, ptr %12, align 4, !tbaa !48
  %60 = icmp ule i32 %59, 65535
  %61 = select i1 %60, i32 1, i32 2
  %62 = load i32, ptr %13, align 4, !tbaa !48
  %63 = add nsw i32 %62, %61
  store i32 %63, ptr %13, align 4, !tbaa !48
  br label %19, !llvm.loop !60

64:                                               ; preds = %43, %25
  call void @llvm.lifetime.end.p0(i64 4, ptr %13) #15
  %65 = load i32, ptr %16, align 4
  switch i32 %65, label %67 [
    i32 2, label %66
  ]

66:                                               ; preds = %64
  store i32 0, ptr %16, align 4
  br label %67

67:                                               ; preds = %66, %64
  call void @llvm.lifetime.end.p0(i64 4, ptr %12) #15
  call void @_ZN6icu_779ScriptSetD1Ev(ptr noundef nonnull align 4 dereferenceable(28) %11) #15
  call void @llvm.lifetime.end.p0(i64 28, ptr %11) #15
  %68 = load i32, ptr %16, align 4
  switch i32 %68, label %75 [
    i32 0, label %69
    i32 1, label %69
  ]

69:                                               ; preds = %67, %67
  ret void

70:                                               ; preds = %26
  %71 = load ptr, ptr %14, align 8
  %72 = load i32, ptr %15, align 4
  %73 = insertvalue { ptr, i32 } poison, ptr %71, 0
  %74 = insertvalue { ptr, i32 } %73, i32 %72, 1
  resume { ptr, i32 } %74

75:                                               ; preds = %67
  unreachable
}