; Function Attrs: mustprogress uwtable
define void @_ZNK6icu_779SpoofImpl27getResolvedScriptSetWithoutERKNS_13UnicodeStringE11UScriptCodeRNS_9ScriptSetER10UErrorCode(ptr nonnull readnone align 8 captures(none) %0, ptr noundef nonnull align 8 dereferenceable(64) %1, i32 noundef %2, ptr noundef nonnull align 4 dereferenceable(28) %3, ptr noundef nonnull align 4 dereferenceable(4) %4) local_unnamed_addr #1 align 2 personality ptr @__gxx_personality_v0 {
  %6 = alloca %"class.icu_77::ScriptSet", align 4
  %7 = tail call noundef nonnull align 4 dereferenceable(28) ptr @_ZN6icu_779ScriptSet6setAllEv(ptr noundef nonnull align 4 dereferenceable(28) %3)
  call void @llvm.lifetime.start.p0(i64 28, ptr nonnull %6) #21
  call void @_ZN6icu_779ScriptSetC1Ev(ptr noundef nonnull align 4 dereferenceable(28) %6)
  %8 = getelementptr inbounds nuw i8, ptr %1, i64 8
  %9 = getelementptr inbounds nuw i8, ptr %1, i64 12
  %10 = load i16, ptr %8, align 8, !tbaa !38
  %11 = icmp slt i16 %10, 0
  %12 = ashr i16 %10, 5
  %13 = sext i16 %12 to i32
  %14 = load i32, ptr %9, align 4
  %15 = select i1 %11, i32 %14, i32 %13
  %16 = icmp sgt i32 %15, 0
  br i1 %16, label %.lr.ph, label %._crit_edge

.lr.ph:                                           ; preds = %5
  %17 = icmp eq i32 %2, 208
  br i1 %17, label %.lr.ph.split.us, label %.lr.ph.split

.lr.ph.split.us:                                  ; preds = %.lr.ph, %25
  %.01619.us = phi i32 [ %28, %25 ], [ 0, %.lr.ph ]
  %18 = invoke noundef i32 @_ZNK6icu_7713UnicodeString8char32AtEi(ptr noundef nonnull align 8 dereferenceable(64) %1, i32 noundef %.01619.us)
          to label %19 unwind label %.split.us

19:                                               ; preds = %.lr.ph.split.us
  invoke void @_ZN6icu_779SpoofImpl21getAugmentedScriptSetEiRNS_9ScriptSetER10UErrorCode(i32 noundef %18, ptr noundef nonnull align 4 dereferenceable(28) %6, ptr noundef nonnull align 4 dereferenceable(4) %4)
          to label %20 unwind label %.split.us

20:                                               ; preds = %19
  %21 = load i32, ptr %4, align 4, !tbaa !19
  %22 = icmp slt i32 %21, 1
  br i1 %22, label %23, label %._crit_edge

23:                                               ; preds = %20
  %24 = invoke noundef nonnull align 4 dereferenceable(28) ptr @_ZN6icu_779ScriptSet9intersectERKS0_(ptr noundef nonnull align 4 dereferenceable(28) %3, ptr noundef nonnull align 4 dereferenceable(28) %6)
          to label %25 unwind label %.split.us

25:                                               ; preds = %23
  %26 = icmp ult i32 %18, 65536
  %27 = select i1 %26, i32 1, i32 2
  %28 = add nuw nsw i32 %27, %.01619.us
  %29 = load i16, ptr %8, align 8, !tbaa !38
  %30 = icmp slt i16 %29, 0
  %31 = ashr i16 %29, 5
  %32 = sext i16 %31 to i32
  %33 = load i32, ptr %9, align 4
  %34 = select i1 %30, i32 %33, i32 %32
  %35 = icmp slt i32 %28, %34
  br i1 %35, label %.lr.ph.split.us, label %._crit_edge, !llvm.loop !46

.split.us:                                        ; preds = %23, %19, %.lr.ph.split.us
  %36 = landingpad { ptr, i32 }
          cleanup
  br label %38

.split:                                           ; preds = %47, %44, %40, %.lr.ph.split
  %37 = landingpad { ptr, i32 }
          cleanup
  br label %38

38:                                               ; preds = %.split.us, %.split
  %.us-phi = phi { ptr, i32 } [ %37, %.split ], [ %36, %.split.us ]
  call void @_ZN6icu_779ScriptSetD1Ev(ptr noundef nonnull align 4 dereferenceable(28) %6) #21
  call void @llvm.lifetime.end.p0(i64 28, ptr nonnull %6) #21
  resume { ptr, i32 } %.us-phi

.lr.ph.split:                                     ; preds = %.lr.ph, %49
  %.01619 = phi i32 [ %52, %49 ], [ 0, %.lr.ph ]
  %39 = invoke noundef i32 @_ZNK6icu_7713UnicodeString8char32AtEi(ptr noundef nonnull align 8 dereferenceable(64) %1, i32 noundef %.01619)
          to label %40 unwind label %.split

40:                                               ; preds = %.lr.ph.split
  invoke void @_ZN6icu_779SpoofImpl21getAugmentedScriptSetEiRNS_9ScriptSetER10UErrorCode(i32 noundef %39, ptr noundef nonnull align 4 dereferenceable(28) %6, ptr noundef nonnull align 4 dereferenceable(4) %4)
          to label %41 unwind label %.split

41:                                               ; preds = %40
  %42 = load i32, ptr %4, align 4, !tbaa !19
  %43 = icmp slt i32 %42, 1
  br i1 %43, label %44, label %._crit_edge

44:                                               ; preds = %41
  %45 = invoke noundef signext i8 @_ZNK6icu_779ScriptSet4testE11UScriptCodeR10UErrorCode(ptr noundef nonnull align 4 dereferenceable(28) %6, i32 noundef %2, ptr noundef nonnull align 4 dereferenceable(4) %4)
          to label %46 unwind label %.split

46:                                               ; preds = %44
  %.not18 = icmp eq i8 %45, 0
  br i1 %.not18, label %47, label %49

47:                                               ; preds = %46
  %48 = invoke noundef nonnull align 4 dereferenceable(28) ptr @_ZN6icu_779ScriptSet9intersectERKS0_(ptr noundef nonnull align 4 dereferenceable(28) %3, ptr noundef nonnull align 4 dereferenceable(28) %6)
          to label %49 unwind label %.split

49:                                               ; preds = %46, %47
  %50 = icmp ult i32 %39, 65536
  %51 = select i1 %50, i32 1, i32 2
  %52 = add nuw nsw i32 %51, %.01619
  %53 = load i16, ptr %8, align 8, !tbaa !38
  %54 = icmp slt i16 %53, 0
  %55 = ashr i16 %53, 5
  %56 = sext i16 %55 to i32
  %57 = load i32, ptr %9, align 4
  %58 = select i1 %54, i32 %57, i32 %56
  %59 = icmp slt i32 %52, %58
  br i1 %59, label %.lr.ph.split, label %._crit_edge, !llvm.loop !46

._crit_edge:                                      ; preds = %49, %41, %25, %20, %5
  call void @_ZN6icu_779ScriptSetD1Ev(ptr noundef nonnull align 4 dereferenceable(28) %6) #21
  call void @llvm.lifetime.end.p0(i64 28, ptr nonnull %6) #21
  ret void
}